target datalayout = "e-m:e-p270:32:32-p271:32:32-p272:64:64-i64:64-i128:128-f80:128-n8:16:32:64-S128"
target triple = "x86_64-pc-linux-gnu"

@.str.20 = private unnamed_addr constant [9 x i8] c"INFINITE\00", align 1
@.str.21 = private unnamed_addr constant [2 x i8] c"0\00", align 1
@.str.22 = private unnamed_addr constant [7 x i8] c"%luPiB\00", align 1
@.str.23 = private unnamed_addr constant [6 x i8] c"%luPB\00", align 1
@.str.24 = private unnamed_addr constant [7 x i8] c"%luTiB\00", align 1
@.str.25 = private unnamed_addr constant [6 x i8] c"%luTB\00", align 1
@.str.26 = private unnamed_addr constant [7 x i8] c"%luGiB\00", align 1
@.str.27 = private unnamed_addr constant [6 x i8] c"%luGB\00", align 1
@.str.28 = private unnamed_addr constant [7 x i8] c"%luMiB\00", align 1
@.str.29 = private unnamed_addr constant [6 x i8] c"%luMB\00", align 1
@.str.30 = private unnamed_addr constant [7 x i8] c"%luKiB\00", align 1
@.str.31 = private unnamed_addr constant [6 x i8] c"%luKB\00", align 1
@.str.32 = private unnamed_addr constant [4 x i8] c"%lu\00", align 1

; Function Attrs: nounwind uwtable
define internal void @_get_size_str(ptr noundef %0, i64 noundef %1, i64 noundef %2) #0 {
  %4 = alloca ptr, align 8
  %5 = alloca i64, align 8
  %6 = alloca i64, align 8
  %7 = alloca i64, align 8
  store ptr %0, ptr %4, align 8
  store i64 %1, ptr %5, align 8
  store i64 %2, ptr %6, align 8
  call void @llvm.lifetime.start.p0(i64 8, ptr %7) #5
  %8 = load i64, ptr %6, align 8
  %9 = icmp eq i64 %8, -2
  br i1 %9, label %13, label %10

10:                                               ; preds = %3
  %11 = load i64, ptr %6, align 8
  %12 = icmp eq i64 %11, -1
  br i1 %12, label %13, label %17

13:                                               ; preds = %10, %3
  %14 = load ptr, ptr %4, align 8
  %15 = load i64, ptr %5, align 8
  %16 = call i32 (ptr, i64, ptr, ...) @snprintf(ptr noundef %14, i64 noundef %15, ptr noundef @.str.20) #5
  br label %151

17:                                               ; preds = %10
  %18 = load i64, ptr %6, align 8
  %19 = icmp eq i64 %18, 0
  br i1 %19, label %20, label %24

20:                                               ; preds = %17
  %21 = load ptr, ptr %4, align 8
  %22 = load i64, ptr %5, align 8
  %23 = call i32 (ptr, i64, ptr, ...) @snprintf(ptr noundef %21, i64 noundef %22, ptr noundef @.str.21) #5
  br label %150

24:                                               ; preds = %17
  %25 = load i64, ptr %6, align 8
  %26 = urem i64 %25, 1125899906842624
  %27 = icmp eq i64 %26, 0
  br i1 %27, label %28, label %35

28:                                               ; preds = %24
  %29 = load i64, ptr %6, align 8
  %30 = udiv i64 %29, 1125899906842624
  store i64 %30, ptr %7, align 8
  %31 = load ptr, ptr %4, align 8
  %32 = load i64, ptr %5, align 8
  %33 = load i64, ptr %7, align 8
  %34 = call i32 (ptr, i64, ptr, ...) @snprintf(ptr noundef %31, i64 noundef %32, ptr noundef @.str.22, i64 noundef %33) #5
  br label %149

35:                                               ; preds = %24
  %36 = load i64, ptr %6, align 8
  %37 = urem i64 %36, 1000000000000000
  %38 = icmp eq i64 %37, 0
  br i1 %38, label %39, label %46

39:                                               ; preds = %35
  %40 = load i64, ptr %6, align 8
  %41 = udiv i64 %40, 1000000000000000
  store i64 %41, ptr %7, align 8
  %42 = load ptr, ptr %4, align 8
  %43 = load i64, ptr %5, align 8
  %44 = load i64, ptr %7, align 8
  %45 = call i32 (ptr, i64, ptr, ...) @snprintf(ptr noundef %42, i64 noundef %43, ptr noundef @.str.23, i64 noundef %44) #5
  br label %148

46:                                               ; preds = %35
  %47 = load i64, ptr %6, align 8
  %48 = urem i64 %47, 1099511627776
  %49 = icmp eq i64 %48, 0
  br i1 %49, label %50, label %57

50:                                               ; preds = %46
  %51 = load i64, ptr %6, align 8
  %52 = udiv i64 %51, 1099511627776
  store i64 %52, ptr %7, align 8
  %53 = load ptr, ptr %4, align 8
  %54 = load i64, ptr %5, align 8
  %55 = load i64, ptr %7, align 8
  %56 = call i32 (ptr, i64, ptr, ...) @snprintf(ptr noundef %53, i64 noundef %54, ptr noundef @.str.24, i64 noundef %55) #5
  br label %147

57:                                               ; preds = %46
  %58 = load i64, ptr %6, align 8
  %59 = urem i64 %58, 1000000000000
  %60 = icmp eq i64 %59, 0
  br i1 %60, label %61, label %68

61:                                               ; preds = %57
  %62 = load i64, ptr %6, align 8
  %63 = udiv i64 %62, 1000000000000
  store i64 %63, ptr %7, align 8
  %64 = load ptr, ptr %4, align 8
  %65 = load i64, ptr %5, align 8
  %66 = load i64, ptr %7, align 8
  %67 = call i32 (ptr, i64, ptr, ...) @snprintf(ptr noundef %64, i64 noundef %65, ptr noundef @.str.25, i64 noundef %66) #5
  br label %146

68:                                               ; preds = %57
  %69 = load i64, ptr %6, align 8
  %70 = urem i64 %69, 1073741824
  %71 = icmp eq i64 %70, 0
  br i1 %71, label %72, label %79

72:                                               ; preds = %68
  %73 = load i64, ptr %6, align 8
  %74 = udiv i64 %73, 1073741824
  store i64 %74, ptr %7, align 8
  %75 = load ptr, ptr %4, align 8
  %76 = load i64, ptr %5, align 8
  %77 = load i64, ptr %7, align 8
  %78 = call i32 (ptr, i64, ptr, ...) @snprintf(ptr noundef %75, i64 noundef %76, ptr noundef @.str.26, i64 noundef %77) #5
  br label %145

79:                                               ; preds = %68
  %80 = load i64, ptr %6, align 8
  %81 = urem i64 %80, 1000000000
  %82 = icmp eq i64 %81, 0
  br i1 %82, label %83, label %90

83:                                               ; preds = %79
  %84 = load i64, ptr %6, align 8
  %85 = udiv i64 %84, 1000000000
  store i64 %85, ptr %7, align 8
  %86 = load ptr, ptr %4, align 8
  %87 = load i64, ptr %5, align 8
  %88 = load i64, ptr %7, align 8
  %89 = call i32 (ptr, i64, ptr, ...) @snprintf(ptr noundef %86, i64 noundef %87, ptr noundef @.str.27, i64 noundef %88) #5
  br label %144

90:                                               ; preds = %79
  %91 = load i64, ptr %6, align 8
  %92 = urem i64 %91, 1048576
  %93 = icmp eq i64 %92, 0
  br i1 %93, label %94, label %101

94:                                               ; preds = %90
  %95 = load i64, ptr %6, align 8
  %96 = udiv i64 %95, 1048576
  store i64 %96, ptr %7, align 8
  %97 = load ptr, ptr %4, align 8
  %98 = load i64, ptr %5, align 8
  %99 = load i64, ptr %7, align 8
  %100 = call i32 (ptr, i64, ptr, ...) @snprintf(ptr noundef %97, i64 noundef %98, ptr noundef @.str.28, i64 noundef %99) #5
  br label %143

101:                                              ; preds = %90
  %102 = load i64, ptr %6, align 8
  %103 = urem i64 %102, 1000000
  %104 = icmp eq i64 %103, 0
  br i1 %104, label %105, label %112

105:                                              ; preds = %101
  %106 = load i64, ptr %6, align 8
  %107 = udiv i64 %106, 1000000
  store i64 %107, ptr %7, align 8
  %108 = load ptr, ptr %4, align 8
  %109 = load i64, ptr %5, align 8
  %110 = load i64, ptr %7, align 8
  %111 = call i32 (ptr, i64, ptr, ...) @snprintf(ptr noundef %108, i64 noundef %109, ptr noundef @.str.29, i64 noundef %110) #5
  br label %142

112:                                              ; preds = %101
  %113 = load i64, ptr %6, align 8
  %114 = urem i64 %113, 1024
  %115 = icmp eq i64 %114, 0
  br i1 %115, label %116, label %123

116:                                              ; preds = %112
  %117 = load i64, ptr %6, align 8
  %118 = udiv i64 %117, 1024
  store i64 %118, ptr %7, align 8
  %119 = load ptr, ptr %4, align 8
  %120 = load i64, ptr %5, align 8
  %121 = load i64, ptr %7, align 8
  %122 = call i32 (ptr, i64, ptr, ...) @snprintf(ptr noundef %119, i64 noundef %120, ptr noundef @.str.30, i64 noundef %121) #5
  br label %141

123:                                              ; preds = %112
  %124 = load i64, ptr %6, align 8
  %125 = urem i64 %124, 1000
  %126 = icmp eq i64 %125, 0
  br i1 %126, label %127, label %134

127:                                              ; preds = %123
  %128 = load i64, ptr %6, align 8
  %129 = udiv i64 %128, 1000
  store i64 %129, ptr %7, align 8
  %130 = load ptr, ptr %4, align 8
  %131 = load i64, ptr %5, align 8
  %132 = load i64, ptr %7, align 8
  %133 = call i32 (ptr, i64, ptr, ...) @snprintf(ptr noundef %130, i64 noundef %131, ptr noundef @.str.31, i64 noundef %132) #5
  br label %140

134:                                              ; preds = %123
  %135 = load i64, ptr %6, align 8
  store i64 %135, ptr %7, align 8
  %136 = load ptr, ptr %4, align 8
  %137 = load i64, ptr %5, align 8
  %138 = load i64, ptr %7, align 8
  %139 = call i32 (ptr, i64, ptr, ...) @snprintf(ptr noundef %136, i64 noundef %137, ptr noundef @.str.32, i64 noundef %138) #5
  br label %140

140:                                              ; preds = %134, %127
  br label %141

141:                                              ; preds = %140, %116
  br label %142

142:                                              ; preds = %141, %105
  br label %143

143:                                              ; preds = %142, %94
  br label %144

144:                                              ; preds = %143, %83
  br label %145

145:                                              ; preds = %144, %72
  br label %146

146:                                              ; preds = %145, %61
  br label %147

147:                                              ; preds = %146, %50
  br label %148

148:                                              ; preds = %147, %39
  br label %149

149:                                              ; preds = %148, %28
  br label %150

150:                                              ; preds = %149, %20
  br label %151

151:                                              ; preds = %150, %13
  call void @llvm.lifetime.end.p0(i64 8, ptr %7) #5
  ret void
}