; Function Attrs: nofree nounwind uwtable
define internal fastcc void @_get_size_str(ptr noundef nonnull writeonly captures(none) %0, i64 noundef %1) unnamed_addr #4 {
  %or.cond = icmp ugt i64 %1, -3
  br i1 %or.cond, label %3, label %4

3:                                                ; preds = %2
  tail call void @llvm.memcpy.p0.p0.i64(ptr noundef nonnull align 1 dereferenceable(9) %0, ptr noundef nonnull align 1 dereferenceable(9) @.str.20, i64 9, i1 false)
  br label %69

4:                                                ; preds = %2
  %5 = icmp eq i64 %1, 0
  br i1 %5, label %6, label %7

6:                                                ; preds = %4
  store i16 48, ptr %0, align 1
  br label %69

7:                                                ; preds = %4
  %8 = and i64 %1, 1125899906842623
  %9 = icmp eq i64 %8, 0
  br i1 %9, label %10, label %13

10:                                               ; preds = %7
  %11 = lshr exact i64 %1, 50
  %12 = tail call i32 (ptr, i64, ptr, ...) @snprintf(ptr noundef nonnull dereferenceable(1) %0, i64 noundef 32, ptr noundef nonnull @.str.22, i64 noundef %11) #9
  br label %69

13:                                               ; preds = %7
  %14 = urem i64 %1, 1000000000000000
  %15 = udiv i64 %1, 1000000000000000
  %16 = icmp eq i64 %14, 0
  br i1 %16, label %17, label %19

17:                                               ; preds = %13
  %18 = tail call i32 (ptr, i64, ptr, ...) @snprintf(ptr noundef nonnull dereferenceable(1) %0, i64 noundef 32, ptr noundef nonnull @.str.23, i64 noundef %15) #9
  br label %69

19:                                               ; preds = %13
  %20 = and i64 %1, 1099511627775
  %21 = icmp eq i64 %20, 0
  br i1 %21, label %22, label %25

22:                                               ; preds = %19
  %23 = lshr exact i64 %1, 40
  %24 = tail call i32 (ptr, i64, ptr, ...) @snprintf(ptr noundef nonnull dereferenceable(1) %0, i64 noundef 32, ptr noundef nonnull @.str.24, i64 noundef %23) #9
  br label %69

25:                                               ; preds = %19
  %26 = urem i64 %1, 1000000000000
  %27 = udiv i64 %1, 1000000000000
  %28 = icmp eq i64 %26, 0
  br i1 %28, label %29, label %31

29:                                               ; preds = %25
  %30 = tail call i32 (ptr, i64, ptr, ...) @snprintf(ptr noundef nonnull dereferenceable(1) %0, i64 noundef 32, ptr noundef nonnull @.str.25, i64 noundef %27) #9
  br label %69

31:                                               ; preds = %25
  %32 = and i64 %1, 1073741823
  %33 = icmp eq i64 %32, 0
  br i1 %33, label %34, label %37

34:                                               ; preds = %31
  %35 = lshr exact i64 %1, 30
  %36 = tail call i32 (ptr, i64, ptr, ...) @snprintf(ptr noundef nonnull dereferenceable(1) %0, i64 noundef 32, ptr noundef nonnull @.str.26, i64 noundef %35) #9
  br label %69

37:                                               ; preds = %31
  %38 = urem i64 %1, 1000000000
  %39 = udiv i64 %1, 1000000000
  %40 = icmp eq i64 %38, 0
  br i1 %40, label %41, label %43

41:                                               ; preds = %37
  %42 = tail call i32 (ptr, i64, ptr, ...) @snprintf(ptr noundef nonnull dereferenceable(1) %0, i64 noundef 32, ptr noundef nonnull @.str.27, i64 noundef %39) #9
  br label %69

43:                                               ; preds = %37
  %44 = and i64 %1, 1048575
  %45 = icmp eq i64 %44, 0
  br i1 %45, label %46, label %49

46:                                               ; preds = %43
  %47 = lshr exact i64 %1, 20
  %48 = tail call i32 (ptr, i64, ptr, ...) @snprintf(ptr noundef nonnull dereferenceable(1) %0, i64 noundef 32, ptr noundef nonnull @.str.28, i64 noundef %47) #9
  br label %69

49:                                               ; preds = %43
  %50 = urem i64 %1, 1000000
  %51 = udiv i64 %1, 1000000
  %52 = icmp eq i64 %50, 0
  br i1 %52, label %53, label %55

53:                                               ; preds = %49
  %54 = tail call i32 (ptr, i64, ptr, ...) @snprintf(ptr noundef nonnull dereferenceable(1) %0, i64 noundef 32, ptr noundef nonnull @.str.29, i64 noundef %51) #9
  br label %69

55:                                               ; preds = %49
  %56 = and i64 %1, 1023
  %57 = icmp eq i64 %56, 0
  br i1 %57, label %58, label %61

58:                                               ; preds = %55
  %59 = lshr exact i64 %1, 10
  %60 = tail call i32 (ptr, i64, ptr, ...) @snprintf(ptr noundef nonnull dereferenceable(1) %0, i64 noundef 32, ptr noundef nonnull @.str.30, i64 noundef %59) #9
  br label %69

61:                                               ; preds = %55
  %62 = urem i64 %1, 1000
  %63 = udiv i64 %1, 1000
  %64 = icmp eq i64 %62, 0
  br i1 %64, label %65, label %67

65:                                               ; preds = %61
  %66 = tail call i32 (ptr, i64, ptr, ...) @snprintf(ptr noundef nonnull dereferenceable(1) %0, i64 noundef 32, ptr noundef nonnull @.str.31, i64 noundef %63) #9
  br label %69

67:                                               ; preds = %61
  %68 = tail call i32 (ptr, i64, ptr, ...) @snprintf(ptr noundef nonnull dereferenceable(1) %0, i64 noundef 32, ptr noundef nonnull @.str.32, i64 noundef %1) #9
  br label %69

69:                                               ; preds = %6, %17, %29, %41, %53, %65, %67, %58, %46, %34, %22, %10, %3
  ret void
}